target datalayout = "e-m:e-p270:32:32-p271:32:32-p272:64:64-i64:64-i128:128-f80:128-n8:16:32:64-S128"
target triple = "x86_64-unknown-linux-gnu"

%"class.std::set.0" = type { %"class.std::_Rb_tree.1" }
%"class.std::_Rb_tree.1" = type { %"struct.std::_Rb_tree<QuantLib::Observer *, QuantLib::Observer *, std::_Identity<QuantLib::Observer *>, std::less<QuantLib::Observer *>>::_Rb_tree_impl" }
%"struct.std::_Rb_tree<QuantLib::Observer *, QuantLib::Observer *, std::_Identity<QuantLib::Observer *>, std::less<QuantLib::Observer *>>::_Rb_tree_impl" = type { [8 x i8], %"struct.std::_Rb_tree_header" }
%"struct.std::_Rb_tree_header" = type { %"struct.std::_Rb_tree_node_base", i64 }
%"struct.std::_Rb_tree_node_base" = type { i32, ptr, ptr, ptr }
%"class.std::set" = type { %"class.std::_Rb_tree" }
%"class.std::_Rb_tree" = type { %"struct.std::_Rb_tree<boost::shared_ptr<QuantLib::Observable>, boost::shared_ptr<QuantLib::Observable>, std::_Identity<boost::shared_ptr<QuantLib::Observable>>, std::less<boost::shared_ptr<QuantLib::Observable>>>::_Rb_tree_impl" }
%"struct.std::_Rb_tree<boost::shared_ptr<QuantLib::Observable>, boost::shared_ptr<QuantLib::Observable>, std::_Identity<boost::shared_ptr<QuantLib::Observable>>, std::less<boost::shared_ptr<QuantLib::Observable>>>::_Rb_tree_impl" = type { [8 x i8], %"struct.std::_Rb_tree_header" }
%"class.boost::detail::shared_count" = type { ptr }
%"class.QuantLib::Observable" = type { ptr, %"class.std::set.0" }
%"class.QuantLib::AnalyticDiscreteGeometricAveragePriceAsianHestonEngine" = type { %"class.QuantLib::DiscreteAveragingAsianOption::engine", double, double, double, double, double, double, %"class.QuantLib::Handle", %"class.QuantLib::Handle", %"class.QuantLib::Handle.25", %"class.boost::shared_ptr.20", %"class.std::map.27", double, %"class.QuantLib::GaussLegendreIntegration", double, double, %"class.std::vector.35" }
%"class.QuantLib::DiscreteAveragingAsianOption::engine" = type { %"class.QuantLib::GenericEngine" }
%"class.QuantLib::GenericEngine" = type { %"class.QuantLib::PricingEngine", %"class.QuantLib::Observer", %"class.QuantLib::DiscreteAveragingAsianOption::arguments", %"class.QuantLib::OneAssetOption::results" }
%"class.QuantLib::PricingEngine" = type { %"class.QuantLib::Observable" }
%"class.QuantLib::Observer" = type { ptr, %"class.std::set" }
%"class.QuantLib::DiscreteAveragingAsianOption::arguments" = type { %"class.QuantLib::Option::arguments", i32, double, i64, %"class.std::vector" }
%"class.QuantLib::Option::arguments" = type { %"class.QuantLib::PricingEngine::arguments", %"class.boost::shared_ptr.16", %"class.boost::shared_ptr.17" }
%"class.QuantLib::PricingEngine::arguments" = type { ptr }
%"class.boost::shared_ptr.16" = type { ptr, %"class.boost::detail::shared_count" }
%"class.boost::shared_ptr.17" = type { ptr, %"class.boost::detail::shared_count" }
%"class.std::vector" = type { %"struct.std::_Vector_base" }
%"struct.std::_Vector_base" = type { %"struct.std::_Vector_base<QuantLib::Date, std::allocator<QuantLib::Date>>::_Vector_impl" }
%"struct.std::_Vector_base<QuantLib::Date, std::allocator<QuantLib::Date>>::_Vector_impl" = type { %"struct.std::_Vector_base<QuantLib::Date, std::allocator<QuantLib::Date>>::_Vector_impl_data" }
%"struct.std::_Vector_base<QuantLib::Date, std::allocator<QuantLib::Date>>::_Vector_impl_data" = type { ptr, ptr, ptr }
%"class.QuantLib::OneAssetOption::results" = type { %"class.QuantLib::Instrument::results", %"class.QuantLib::Greeks", %"class.QuantLib::MoreGreeks" }
%"class.QuantLib::Instrument::results" = type { %"class.QuantLib::PricingEngine::results", double, double, %"class.QuantLib::Date", %"class.std::map" }
%"class.QuantLib::PricingEngine::results" = type { ptr }
%"class.QuantLib::Date" = type { i64 }
%"class.std::map" = type { %"class.std::_Rb_tree.10" }
%"class.std::_Rb_tree.10" = type { %"struct.std::_Rb_tree<std::__cxx11::basic_string<char>, std::pair<const std::__cxx11::basic_string<char>, boost::any>, std::_Select1st<std::pair<const std::__cxx11::basic_string<char>, boost::any>>, std::less<std::__cxx11::basic_string<char>>>::_Rb_tree_impl" }
%"struct.std::_Rb_tree<std::__cxx11::basic_string<char>, std::pair<const std::__cxx11::basic_string<char>, boost::any>, std::_Select1st<std::pair<const std::__cxx11::basic_string<char>, boost::any>>, std::less<std::__cxx11::basic_string<char>>>::_Rb_tree_impl" = type { [8 x i8], %"struct.std::_Rb_tree_header" }
%"class.QuantLib::Greeks" = type { %"class.QuantLib::PricingEngine::results", double, double, double, double, double, double }
%"class.QuantLib::MoreGreeks" = type { %"class.QuantLib::PricingEngine::results", double, double, double, double, double }
%"class.QuantLib::Handle" = type { %"class.boost::shared_ptr.24" }
%"class.boost::shared_ptr.24" = type { ptr, %"class.boost::detail::shared_count" }
%"class.QuantLib::Handle.25" = type { %"class.boost::shared_ptr.26" }
%"class.boost::shared_ptr.26" = type { ptr, %"class.boost::detail::shared_count" }
%"class.boost::shared_ptr.20" = type { ptr, %"class.boost::detail::shared_count" }
%"class.std::map.27" = type { %"class.std::_Rb_tree.28" }
%"class.std::_Rb_tree.28" = type { %"struct.std::_Rb_tree<unsigned long, std::pair<const unsigned long, std::complex<double>>, std::_Select1st<std::pair<const unsigned long, std::complex<double>>>, std::less<unsigned long>>::_Rb_tree_impl" }
%"struct.std::_Rb_tree<unsigned long, std::pair<const unsigned long, std::complex<double>>, std::_Select1st<std::pair<const unsigned long, std::complex<double>>>, std::less<unsigned long>>::_Rb_tree_impl" = type { [8 x i8], %"struct.std::_Rb_tree_header" }
%"class.QuantLib::GaussLegendreIntegration" = type { %"class.QuantLib::GaussianQuadrature" }
%"class.QuantLib::GaussianQuadrature" = type { %"class.QuantLib::Array", %"class.QuantLib::Array" }
%"class.QuantLib::Array" = type { %"class.std::unique_ptr", i64 }
%"class.std::unique_ptr" = type { %"struct.std::__uniq_ptr_data" }
%"struct.std::__uniq_ptr_data" = type { %"class.std::__uniq_ptr_impl" }
%"class.std::__uniq_ptr_impl" = type { %"class.std::tuple" }
%"class.std::tuple" = type { %"struct.std::_Tuple_impl" }
%"struct.std::_Tuple_impl" = type { %"struct.std::_Head_base.34" }
%"struct.std::_Head_base.34" = type { ptr }
%"class.std::vector.35" = type { %"struct.std::_Vector_base.36" }
%"struct.std::_Vector_base.36" = type { %"struct.std::_Vector_base<double, std::allocator<double>>::_Vector_impl" }
%"struct.std::_Vector_base<double, std::allocator<double>>::_Vector_impl" = type { %"struct.std::_Vector_base<double, std::allocator<double>>::_Vector_impl_data" }
%"struct.std::_Vector_base<double, std::allocator<double>>::_Vector_impl_data" = type { ptr, ptr, ptr }
%"class.std::complex" = type { { double, double } }

; Function Attrs: mustprogress nounwind uwtable
define linkonce_odr noundef nonnull align 8 dereferenceable(16) ptr @_ZNSt7complexIdEdVEd(ptr noundef nonnull align 8 dereferenceable(16) %this, double noundef %__d) #1 comdat align 2 {
entry:
  %this.addr = alloca ptr, align 8
  %__d.addr = alloca double, align 8
  store ptr %this, ptr %this.addr, align 8, !tbaa !3
  store double %__d, ptr %__d.addr, align 8, !tbaa !14
  %this1 = load ptr, ptr %this.addr, align 8
  %0 = load double, ptr %__d.addr, align 8, !tbaa !14
  %_M_value = getelementptr inbounds nuw %"class.std::complex", ptr %this1, i32 0, i32 0
  %_M_value.realp = getelementptr inbounds nuw { double, double }, ptr %_M_value, i32 0, i32 0
  %_M_value.real = load double, ptr %_M_value.realp, align 8
  %_M_value.imagp = getelementptr inbounds nuw { double, double }, ptr %_M_value, i32 0, i32 1
  %_M_value.imag = load double, ptr %_M_value.imagp, align 8
  %1 = fdiv double %_M_value.real, %0
  %2 = fdiv double %_M_value.imag, %0
  %_M_value.realp2 = getelementptr inbounds nuw { double, double }, ptr %_M_value, i32 0, i32 0
  %_M_value.imagp3 = getelementptr inbounds nuw { double, double }, ptr %_M_value, i32 0, i32 1
  store double %1, ptr %_M_value.realp2, align 8
  store double %2, ptr %_M_value.imagp3, align 8
  ret ptr %this1
}

; Function Attrs: mustprogress nounwind uwtable
define linkonce_odr noundef nonnull align 8 dereferenceable(16) ptr @_ZNSt7complexIdEmLEd(ptr noundef nonnull align 8 dereferenceable(16) %this, double noundef %__d) #1 comdat align 2 {
entry:
  %this.addr = alloca ptr, align 8
  %__d.addr = alloca double, align 8
  store ptr %this, ptr %this.addr, align 8, !tbaa !3
  store double %__d, ptr %__d.addr, align 8, !tbaa !14
  %this1 = load ptr, ptr %this.addr, align 8
  %0 = load double, ptr %__d.addr, align 8, !tbaa !14
  %_M_value = getelementptr inbounds nuw %"class.std::complex", ptr %this1, i32 0, i32 0
  %_M_value.realp = getelementptr inbounds nuw { double, double }, ptr %_M_value, i32 0, i32 0
  %_M_value.real = load double, ptr %_M_value.realp, align 8
  %_M_value.imagp = getelementptr inbounds nuw { double, double }, ptr %_M_value, i32 0, i32 1
  %_M_value.imag = load double, ptr %_M_value.imagp, align 8
  %mul.rl = fmul double %_M_value.real, %0
  %mul.il = fmul double %_M_value.imag, %0
  %_M_value.realp2 = getelementptr inbounds nuw { double, double }, ptr %_M_value, i32 0, i32 0
  %_M_value.imagp3 = getelementptr inbounds nuw { double, double }, ptr %_M_value, i32 0, i32 1
  store double %mul.rl, ptr %_M_value.realp2, align 8
  store double %mul.il, ptr %_M_value.imagp3, align 8
  ret ptr %this1
}

; Function Attrs: inlinehint mustprogress uwtable
define linkonce_odr { double, double } @_ZStdvIdESt7complexIT_ERKS2_RKS1_(ptr noundef nonnull align 8 dereferenceable(16) %__x, ptr noundef nonnull align 8 dereferenceable(8) %__y) #4 comdat {
entry:
  %retval = alloca %"class.std::complex", align 8
  %__x.addr = alloca ptr, align 8
  %__y.addr = alloca ptr, align 8
  store ptr %__x, ptr %__x.addr, align 8, !tbaa !3
  store ptr %__y, ptr %__y.addr, align 8, !tbaa !3
  %0 = load ptr, ptr %__x.addr, align 8, !tbaa !3
  call void @llvm.memcpy.p0.p0.i64(ptr align 8 %retval, ptr align 8 %0, i64 16, i1 false), !tbaa.struct !104
  %1 = load ptr, ptr %__y.addr, align 8, !tbaa !3
  %2 = load double, ptr %1, align 8, !tbaa !14
  %call = call noundef nonnull align 8 dereferenceable(16) ptr @_ZNSt7complexIdEdVEd(ptr noundef nonnull align 8 dereferenceable(16) %retval, double noundef %2)
  %coerce.dive = getelementptr inbounds nuw %"class.std::complex", ptr %retval, i32 0, i32 0
  %3 = load { double, double }, ptr %coerce.dive, align 8
  ret { double, double } %3
}

; Function Attrs: inlinehint mustprogress uwtable
define linkonce_odr { double, double } @_ZStmlIdESt7complexIT_ERKS1_RKS2_(ptr noundef nonnull align 8 dereferenceable(8) %__x, ptr noundef nonnull align 8 dereferenceable(16) %__y) #4 comdat {
entry:
  %retval = alloca %"class.std::complex", align 8
  %__x.addr = alloca ptr, align 8
  %__y.addr = alloca ptr, align 8
  store ptr %__x, ptr %__x.addr, align 8, !tbaa !3
  store ptr %__y, ptr %__y.addr, align 8, !tbaa !3
  %0 = load ptr, ptr %__y.addr, align 8, !tbaa !3
  call void @llvm.memcpy.p0.p0.i64(ptr align 8 %retval, ptr align 8 %0, i64 16, i1 false), !tbaa.struct !104
  %1 = load ptr, ptr %__x.addr, align 8, !tbaa !3
  %2 = load double, ptr %1, align 8, !tbaa !14
  %call = call noundef nonnull align 8 dereferenceable(16) ptr @_ZNSt7complexIdEmLEd(ptr noundef nonnull align 8 dereferenceable(16) %retval, double noundef %2)
  %coerce.dive = getelementptr inbounds nuw %"class.std::complex", ptr %retval, i32 0, i32 0
  %3 = load { double, double }, ptr %coerce.dive, align 8
  ret { double, double } %3
}

; Function Attrs: mustprogress nounwind uwtable
define linkonce_odr void @_ZNSt7complexIdEC2Edd(ptr noundef nonnull align 8 dereferenceable(16) %this, double noundef %__r, double noundef %__i) unnamed_addr #1 comdat align 2 {
entry:
  %this.addr = alloca ptr, align 8
  %__r.addr = alloca double, align 8
  %__i.addr = alloca double, align 8
  store ptr %this, ptr %this.addr, align 8, !tbaa !3
  store double %__r, ptr %__r.addr, align 8, !tbaa !14
  store double %__i, ptr %__i.addr, align 8, !tbaa !14
  %this1 = load ptr, ptr %this.addr, align 8
  %_M_value = getelementptr inbounds nuw %"class.std::complex", ptr %this1, i32 0, i32 0
  %0 = load double, ptr %__r.addr, align 8, !tbaa !14
  %1 = load double, ptr %__i.addr, align 8, !tbaa !14
  %_M_value.realp = getelementptr inbounds nuw { double, double }, ptr %_M_value, i32 0, i32 0
  %_M_value.imagp = getelementptr inbounds nuw { double, double }, ptr %_M_value, i32 0, i32 1
  store double %0, ptr %_M_value.realp, align 8
  store double %1, ptr %_M_value.imagp, align 8
  ret void
}

; Function Attrs: mustprogress uwtable
define { double, double } @_ZNK8QuantLib54AnalyticDiscreteGeometricAveragePriceAsianHestonEngine5omegaERKSt7complexIdES4_mmm(ptr noundef nonnull align 8 dereferenceable(624) %this, ptr noundef nonnull align 8 dereferenceable(16) %s, ptr noundef nonnull align 8 dereferenceable(16) %w, i64 noundef %k, i64 noundef %kStar, i64 noundef %n) #2 align 2 {
entry:
  %retval = alloca %"class.std::complex", align 8
  %this.addr = alloca ptr, align 8
  %s.addr = alloca ptr, align 8
  %w.addr = alloca ptr, align 8
  %k.addr = alloca i64, align 8
  %kStar.addr = alloca i64, align 8
  %n.addr = alloca i64, align 8
  %ref.tmp = alloca %"class.std::complex", align 8
  %ref.tmp7 = alloca %"class.std::complex", align 8
  %ref.tmp11 = alloca double, align 8
  store ptr %this, ptr %this.addr, align 8, !tbaa !3
  store ptr %s, ptr %s.addr, align 8, !tbaa !3
  store ptr %w, ptr %w.addr, align 8, !tbaa !3
  store i64 %k, ptr %k.addr, align 8, !tbaa !88
  store i64 %kStar, ptr %kStar.addr, align 8, !tbaa !88
  store i64 %n, ptr %n.addr, align 8, !tbaa !88
  %this1 = load ptr, ptr %this.addr, align 8
  %0 = load i64, ptr %k.addr, align 8, !tbaa !88
  %1 = load i64, ptr %kStar.addr, align 8, !tbaa !88
  %cmp = icmp eq i64 %0, %1
  br i1 %cmp, label %if.then, label %if.else

if.then:                                          ; preds = %entry
  call void @_ZNSt7complexIdEC2Edd(ptr noundef nonnull align 8 dereferenceable(16) %retval, double noundef 0.000000e+00, double noundef 0.000000e+00)
  br label %return

if.else:                                          ; preds = %entry
  %2 = load i64, ptr %k.addr, align 8, !tbaa !88
  %3 = load i64, ptr %n.addr, align 8, !tbaa !88
  %add = add i64 %3, 1
  %cmp2 = icmp eq i64 %2, %add
  br i1 %cmp2, label %if.then3, label %if.else6

if.then3:                                         ; preds = %if.else
  call void @llvm.lifetime.start.p0(i64 16, ptr %ref.tmp) #15
  %rho_ = getelementptr inbounds nuw %"class.QuantLib::AnalyticDiscreteGeometricAveragePriceAsianHestonEngine", ptr %this1, i32 0, i32 2
  %4 = load ptr, ptr %w.addr, align 8, !tbaa !3
  %call = call { double, double } @_ZStmlIdESt7complexIT_ERKS1_RKS2_(ptr noundef nonnull align 8 dereferenceable(8) %rho_, ptr noundef nonnull align 8 dereferenceable(16) %4)
  %coerce.dive = getelementptr inbounds nuw %"class.std::complex", ptr %ref.tmp, i32 0, i32 0
  %5 = getelementptr inbounds nuw { double, double }, ptr %coerce.dive, i32 0, i32 0
  %6 = extractvalue { double, double } %call, 0
  store double %6, ptr %5, align 8
  %7 = getelementptr inbounds nuw { double, double }, ptr %coerce.dive, i32 0, i32 1
  %8 = extractvalue { double, double } %call, 1
  store double %8, ptr %7, align 8
  %sigma_ = getelementptr inbounds nuw %"class.QuantLib::AnalyticDiscreteGeometricAveragePriceAsianHestonEngine", ptr %this1, i32 0, i32 5
  %call4 = call { double, double } @_ZStdvIdESt7complexIT_ERKS2_RKS1_(ptr noundef nonnull align 8 dereferenceable(16) %ref.tmp, ptr noundef nonnull align 8 dereferenceable(8) %sigma_)
  %coerce.dive5 = getelementptr inbounds nuw %"class.std::complex", ptr %retval, i32 0, i32 0
  %9 = getelementptr inbounds nuw { double, double }, ptr %coerce.dive5, i32 0, i32 0
  %10 = extractvalue { double, double } %call4, 0
  store double %10, ptr %9, align 8
  %11 = getelementptr inbounds nuw { double, double }, ptr %coerce.dive5, i32 0, i32 1
  %12 = extractvalue { double, double } %call4, 1
  store double %12, ptr %11, align 8
  call void @llvm.lifetime.end.p0(i64 16, ptr %ref.tmp) #15
  br label %return

if.else6:                                         ; preds = %if.else
  call void @llvm.lifetime.start.p0(i64 16, ptr %ref.tmp7) #15
  %rho_8 = getelementptr inbounds nuw %"class.QuantLib::AnalyticDiscreteGeometricAveragePriceAsianHestonEngine", ptr %this1, i32 0, i32 2
  %13 = load ptr, ptr %s.addr, align 8, !tbaa !3
  %call9 = call { double, double } @_ZStmlIdESt7complexIT_ERKS1_RKS2_(ptr noundef nonnull align 8 dereferenceable(8) %rho_8, ptr noundef nonnull align 8 dereferenceable(16) %13)
  %coerce.dive10 = getelementptr inbounds nuw %"class.std::complex", ptr %ref.tmp7, i32 0, i32 0
  %14 = getelementptr inbounds nuw { double, double }, ptr %coerce.dive10, i32 0, i32 0
  %15 = extractvalue { double, double } %call9, 0
  store double %15, ptr %14, align 8
  %16 = getelementptr inbounds nuw { double, double }, ptr %coerce.dive10, i32 0, i32 1
  %17 = extractvalue { double, double } %call9, 1
  store double %17, ptr %16, align 8
  call void @llvm.lifetime.start.p0(i64 8, ptr %ref.tmp11) #15
  %sigma_12 = getelementptr inbounds nuw %"class.QuantLib::AnalyticDiscreteGeometricAveragePriceAsianHestonEngine", ptr %this1, i32 0, i32 5
  %18 = load double, ptr %sigma_12, align 8, !tbaa !83
  %19 = load i64, ptr %n.addr, align 8, !tbaa !88
  %conv = uitofp i64 %19 to double
  %mul = fmul double %18, %conv
  store double %mul, ptr %ref.tmp11, align 8, !tbaa !14
  %call13 = call { double, double } @_ZStdvIdESt7complexIT_ERKS2_RKS1_(ptr noundef nonnull align 8 dereferenceable(16) %ref.tmp7, ptr noundef nonnull align 8 dereferenceable(8) %ref.tmp11)
  %coerce.dive14 = getelementptr inbounds nuw %"class.std::complex", ptr %retval, i32 0, i32 0
  %20 = getelementptr inbounds nuw { double, double }, ptr %coerce.dive14, i32 0, i32 0
  %21 = extractvalue { double, double } %call13, 0
  store double %21, ptr %20, align 8
  %22 = getelementptr inbounds nuw { double, double }, ptr %coerce.dive14, i32 0, i32 1
  %23 = extractvalue { double, double } %call13, 1
  store double %23, ptr %22, align 8
  call void @llvm.lifetime.end.p0(i64 8, ptr %ref.tmp11) #15
  call void @llvm.lifetime.end.p0(i64 16, ptr %ref.tmp7) #15
  br label %return

return:                                           ; preds = %if.else6, %if.then3, %if.then
  %coerce.dive15 = getelementptr inbounds nuw %"class.std::complex", ptr %retval, i32 0, i32 0
  %24 = load { double, double }, ptr %coerce.dive15, align 8
  ret { double, double } %24
}