; Function Attrs: mustprogress nofree norecurse nosync nounwind willreturn memory(argmem: read) uwtable
define { double, double } @_ZNK8QuantLib54AnalyticDiscreteGeometricAveragePriceAsianHestonEngine5omegaERKSt7complexIdES4_mmm(ptr nocapture noundef nonnull readonly align 8 dereferenceable(624) %this, ptr nocapture noundef nonnull readonly align 8 dereferenceable(16) %s, ptr nocapture noundef nonnull readonly align 8 dereferenceable(16) %w, i64 noundef %k, i64 noundef %kStar, i64 noundef %n) local_unnamed_addr #13 align 2 {
entry:
  %cmp = icmp eq i64 %k, %kStar
  br i1 %cmp, label %return, label %if.else

if.else:                                          ; preds = %entry
  %add = add i64 %n, 1
  %cmp2 = icmp eq i64 %k, %add
  %rho_ = getelementptr inbounds nuw i8, ptr %this, i64 392
  %0 = load double, ptr %rho_, align 8, !tbaa !127
  %sigma_ = getelementptr inbounds nuw i8, ptr %this, i64 416
  %1 = load double, ptr %sigma_, align 8, !tbaa !127
  br i1 %cmp2, label %if.then3, label %if.else6

if.then3:                                         ; preds = %if.else
  %retval.sroa.0.0.copyload.i = load double, ptr %w, align 8
  %retval.sroa.4.0.__y.sroa_idx.i = getelementptr inbounds i8, ptr %w, i64 8
  %retval.sroa.4.0.copyload.i = load double, ptr %retval.sroa.4.0.__y.sroa_idx.i, align 8, !tbaa !33
  %mul.rl.i.i = fmul double %retval.sroa.0.0.copyload.i, %0
  %mul.il.i.i = fmul double %retval.sroa.4.0.copyload.i, %0
  %2 = fdiv double %mul.rl.i.i, %1
  %3 = fdiv double %mul.il.i.i, %1
  br label %return

if.else6:                                         ; preds = %if.else
  %retval.sroa.0.0.copyload.i7 = load double, ptr %s, align 8
  %retval.sroa.4.0.__y.sroa_idx.i8 = getelementptr inbounds i8, ptr %s, i64 8
  %retval.sroa.4.0.copyload.i9 = load double, ptr %retval.sroa.4.0.__y.sroa_idx.i8, align 8, !tbaa !33
  %mul.rl.i.i10 = fmul double %retval.sroa.0.0.copyload.i7, %0
  %mul.il.i.i11 = fmul double %retval.sroa.4.0.copyload.i9, %0
  %conv = uitofp i64 %n to double
  %mul = fmul double %1, %conv
  %4 = fdiv double %mul.rl.i.i10, %mul
  %5 = fdiv double %mul.il.i.i11, %mul
  br label %return

return:                                           ; preds = %entry, %if.else6, %if.then3
  %retval.sroa.0.0 = phi double [ %2, %if.then3 ], [ %4, %if.else6 ], [ 0.000000e+00, %entry ]
  %retval.sroa.4.0 = phi double [ %3, %if.then3 ], [ %5, %if.else6 ], [ 0.000000e+00, %entry ]
  %.fca.0.insert = insertvalue { double, double } poison, double %retval.sroa.0.0, 0
  %.fca.1.insert = insertvalue { double, double } %.fca.0.insert, double %retval.sroa.4.0, 1
  ret { double, double } %.fca.1.insert
}